target datalayout = "e-m:e-p270:32:32-p271:32:32-p272:64:64-i64:64-i128:128-f80:128-n8:16:32:64-S128"
target triple = "x86_64-pc-linux-gnu"

%struct.lzma_filter_encoder = type { i64, ptr, ptr, ptr, ptr, i32, ptr }
%struct.lzma_filter = type { i64, ptr }

; Function Attrs: nounwind uwtable
define internal ptr @encoder_find(i64 noundef %0) #1 {
  %2 = alloca ptr, align 8
  %3 = alloca i64, align 8
  %4 = alloca i64, align 8
  store i64 %0, ptr %3, align 8
  store i64 0, ptr %4, align 8
  br label %5

5:                                                ; preds = %19, %1
  %6 = load i64, ptr %4, align 8
  %7 = icmp ult i64 %6, 9
  br i1 %7, label %8, label %22

8:                                                ; preds = %5
  %9 = load i64, ptr %4, align 8
  %10 = getelementptr inbounds [9 x %struct.lzma_filter_encoder], ptr @encoders, i64 0, i64 %9
  %11 = getelementptr inbounds %struct.lzma_filter_encoder, ptr %10, i32 0, i32 0
  %12 = load i64, ptr %11, align 8
  %13 = load i64, ptr %3, align 8
  %14 = icmp eq i64 %12, %13
  br i1 %14, label %15, label %18

15:                                               ; preds = %8
  %16 = load i64, ptr %4, align 8
  %17 = getelementptr inbounds %struct.lzma_filter_encoder, ptr @encoders, i64 %16
  store ptr %17, ptr %2, align 8
  br label %23

18:                                               ; preds = %8
  br label %19

19:                                               ; preds = %18
  %20 = load i64, ptr %4, align 8
  %21 = add i64 %20, 1
  store i64 %21, ptr %4, align 8
  br label %5, !llvm.loop !5

22:                                               ; preds = %5
  store ptr null, ptr %2, align 8
  br label %23

23:                                               ; preds = %22, %15
  %24 = load ptr, ptr %2, align 8
  ret ptr %24
}

; Function Attrs: nounwind uwtable
define dso_local i32 @lzma_properties_encode(ptr noundef %0, ptr noundef %1) #1 {
  %3 = alloca i32, align 4
  %4 = alloca ptr, align 8
  %5 = alloca ptr, align 8
  %6 = alloca ptr, align 8
  store ptr %0, ptr %4, align 8
  store ptr %1, ptr %5, align 8
  %7 = load ptr, ptr %4, align 8
  %8 = getelementptr inbounds %struct.lzma_filter, ptr %7, i32 0, i32 0
  %9 = load i64, ptr %8, align 8
  %10 = call ptr @encoder_find(i64 noundef %9)
  store ptr %10, ptr %6, align 8
  %11 = load ptr, ptr %6, align 8
  %12 = icmp eq ptr %11, null
  br i1 %12, label %13, label %14

13:                                               ; preds = %2
  store i32 11, ptr %3, align 4
  br label %29

14:                                               ; preds = %2
  %15 = load ptr, ptr %6, align 8
  %16 = getelementptr inbounds %struct.lzma_filter_encoder, ptr %15, i32 0, i32 6
  %17 = load ptr, ptr %16, align 8
  %18 = icmp eq ptr %17, null
  br i1 %18, label %19, label %20

19:                                               ; preds = %14
  store i32 0, ptr %3, align 4
  br label %29

20:                                               ; preds = %14
  %21 = load ptr, ptr %6, align 8
  %22 = getelementptr inbounds %struct.lzma_filter_encoder, ptr %21, i32 0, i32 6
  %23 = load ptr, ptr %22, align 8
  %24 = load ptr, ptr %4, align 8
  %25 = getelementptr inbounds %struct.lzma_filter, ptr %24, i32 0, i32 1
  %26 = load ptr, ptr %25, align 8
  %27 = load ptr, ptr %5, align 8
  %28 = call i32 %23(ptr noundef %26, ptr noundef %27)
  store i32 %28, ptr %3, align 4
  br label %29

29:                                               ; preds = %20, %19, %13
  %30 = load i32, ptr %3, align 4
  ret i32 %30
}