; Function Attrs: nounwind uwtable
define dso_local i32 @lzma_properties_encode(ptr noundef readonly captures(none) %0, ptr noundef %1) local_unnamed_addr #2 {
  %3 = load i64, ptr %0, align 8
  br label %4

4:                                                ; preds = %8, %2
  %.07.i = phi i64 [ 0, %2 ], [ %9, %8 ]
  %5 = getelementptr inbounds nuw [9 x %struct.lzma_filter_encoder], ptr @encoders, i64 0, i64 %.07.i
  %6 = load i64, ptr %5, align 8
  %7 = icmp eq i64 %6, %3
  br i1 %7, label %encoder_find.exit, label %8

8:                                                ; preds = %4
  %9 = add nuw nsw i64 %.07.i, 1
  %exitcond.not.i = icmp eq i64 %9, 9
  br i1 %exitcond.not.i, label %encoder_find.exit.thread, label %4, !llvm.loop !5

encoder_find.exit:                                ; preds = %4
  %10 = getelementptr inbounds nuw i8, ptr %5, i64 48
  %11 = load ptr, ptr %10, align 8
  %12 = icmp eq ptr %11, null
  br i1 %12, label %encoder_find.exit.thread, label %13

13:                                               ; preds = %encoder_find.exit
  %14 = getelementptr inbounds nuw i8, ptr %0, i64 8
  %15 = load ptr, ptr %14, align 8
  %16 = tail call i32 %11(ptr noundef %15, ptr noundef %1) #9
  br label %encoder_find.exit.thread

encoder_find.exit.thread:                         ; preds = %8, %encoder_find.exit, %13
  %.0 = phi i32 [ %16, %13 ], [ 0, %encoder_find.exit ], [ 11, %8 ]
  ret i32 %.0
}